target datalayout = "e-m:e-p270:32:32-p271:32:32-p272:64:64-i64:64-i128:128-f80:128-n8:16:32:64-S128"
target triple = "x86_64-pc-linux-gnu"

%struct.Vec_Ptr_t_ = type { i32, i32, ptr }
%struct.Vec_Int_t_ = type { i32, i32, ptr }

@.str.4 = private unnamed_addr constant [53 x i8] c"Total number of equiv classes                = %7d.\0A\00", align 1
@.str.5 = private unnamed_addr constant [53 x i8] c"Participating nodes from both networks       = %7d.\0A\00", align 1
@.str.6 = private unnamed_addr constant [73 x i8] c"Participating nodes from the first network   = %7d. (%7.2f %% of nodes)\0A\00", align 1
@.str.7 = private unnamed_addr constant [73 x i8] c"Participating nodes from the second network  = %7d. (%7.2f %% of nodes)\0A\00", align 1
@.str.8 = private unnamed_addr constant [86 x i8] c"Node pairs (any polarity)                    = %7d. (%7.2f %% of names can be moved)\0A\00", align 1
@.str.9 = private unnamed_addr constant [86 x i8] c"Node pairs (same polarity)                   = %7d. (%7.2f %% of names can be moved)\0A\00", align 1
@.str.10 = private unnamed_addr constant [5 x i8] c"%s =\00", align 1
@.str.11 = private unnamed_addr constant [14 x i8] c"Total runtime\00", align 1
@.str.12 = private unnamed_addr constant [11 x i8] c"%9.2f sec\0A\00", align 1

; Function Attrs: nounwind uwtable
define internal i32 @Abc_MinInt(i32 noundef %0, i32 noundef %1) #0 {
  %3 = alloca i32, align 4
  %4 = alloca i32, align 4
  store i32 %0, ptr %3, align 4
  store i32 %1, ptr %4, align 4
  %5 = load i32, ptr %3, align 4
  %6 = load i32, ptr %4, align 4
  %7 = icmp slt i32 %5, %6
  br i1 %7, label %8, label %10

8:                                                ; preds = %2
  %9 = load i32, ptr %3, align 4
  br label %12

10:                                               ; preds = %2
  %11 = load i32, ptr %4, align 4
  br label %12

12:                                               ; preds = %10, %8
  %13 = phi i32 [ %9, %8 ], [ %11, %10 ]
  ret i32 %13
}

; Function Attrs: nounwind uwtable
define i32 @Abc_ObjEquivId2Polar(i32 noundef %0) #0 {
  %2 = alloca i32, align 4
  store i32 %0, ptr %2, align 4
  %3 = load i32, ptr %2, align 4
  %4 = ashr i32 %3, 1
  %5 = and i32 %4, 1
  ret i32 %5
}

; Function Attrs: nounwind uwtable
define i32 @Abc_ObjEquivId2NtkId(i32 noundef %0) #0 {
  %2 = alloca i32, align 4
  store i32 %0, ptr %2, align 4
  %3 = load i32, ptr %2, align 4
  %4 = and i32 %3, 1
  ret i32 %4
}

; Function Attrs: nounwind uwtable
define internal i32 @Vec_IntEntry(ptr noundef %0, i32 noundef %1) #0 {
  %3 = alloca ptr, align 8
  %4 = alloca i32, align 4
  store ptr %0, ptr %3, align 8
  store i32 %1, ptr %4, align 4
  %5 = load ptr, ptr %3, align 8
  %6 = getelementptr inbounds %struct.Vec_Int_t_, ptr %5, i32 0, i32 2
  %7 = load ptr, ptr %6, align 8
  %8 = load i32, ptr %4, align 4
  %9 = sext i32 %8 to i64
  %10 = getelementptr inbounds i32, ptr %7, i64 %9
  %11 = load i32, ptr %10, align 4
  ret i32 %11
}

; Function Attrs: nounwind uwtable
define internal i32 @Vec_IntSize(ptr noundef %0) #0 {
  %2 = alloca ptr, align 8
  store ptr %0, ptr %2, align 8
  %3 = load ptr, ptr %2, align 8
  %4 = getelementptr inbounds %struct.Vec_Int_t_, ptr %3, i32 0, i32 1
  %5 = load i32, ptr %4, align 4
  ret i32 %5
}

; Function Attrs: nounwind uwtable
define internal ptr @Vec_PtrEntry(ptr noundef %0, i32 noundef %1) #0 {
  %3 = alloca ptr, align 8
  %4 = alloca i32, align 4
  store ptr %0, ptr %3, align 8
  store i32 %1, ptr %4, align 4
  %5 = load ptr, ptr %3, align 8
  %6 = getelementptr inbounds %struct.Vec_Ptr_t_, ptr %5, i32 0, i32 2
  %7 = load ptr, ptr %6, align 8
  %8 = load i32, ptr %4, align 4
  %9 = sext i32 %8 to i64
  %10 = getelementptr inbounds ptr, ptr %7, i64 %9
  %11 = load ptr, ptr %10, align 8
  ret ptr %11
}

; Function Attrs: nounwind uwtable
define internal i32 @Vec_PtrSize(ptr noundef %0) #0 {
  %2 = alloca ptr, align 8
  store ptr %0, ptr %2, align 8
  %3 = load ptr, ptr %2, align 8
  %4 = getelementptr inbounds %struct.Vec_Ptr_t_, ptr %3, i32 0, i32 1
  %5 = load i32, ptr %4, align 4
  ret i32 %5
}

; Function Attrs: nounwind uwtable
define void @Abc_NtkDressPrintStats(ptr noundef %0, i32 noundef %1, i32 noundef %2, i64 noundef %3) #0 {
  %5 = alloca ptr, align 8
  %6 = alloca i32, align 4
  %7 = alloca i32, align 4
  %8 = alloca i64, align 8
  %9 = alloca ptr, align 8
  %10 = alloca i32, align 4
  %11 = alloca i32, align 4
  %12 = alloca i32, align 4
  %13 = alloca [2 x i32], align 4
  %14 = alloca [2 x i32], align 4
  %15 = alloca i32, align 4
  %16 = alloca i32, align 4
  %17 = alloca [2 x i32], align 4
  %18 = alloca [2 x i32], align 4
  store ptr %0, ptr %5, align 8
  store i32 %1, ptr %6, align 4
  store i32 %2, ptr %7, align 4
  store i64 %3, ptr %8, align 8
  call void @llvm.memset.p0.i64(ptr align 4 %13, i8 0, i64 8, i1 false)
  call void @llvm.memset.p0.i64(ptr align 4 %14, i8 0, i64 8, i1 false)
  store i32 0, ptr %15, align 4
  store i32 0, ptr %16, align 4
  store i32 0, ptr %10, align 4
  br label %19

19:                                               ; preds = %127, %4
  %20 = load i32, ptr %10, align 4
  %21 = load ptr, ptr %5, align 8
  %22 = call i32 @Vec_PtrSize(ptr noundef %21)
  %23 = icmp slt i32 %20, %22
  br i1 %23, label %24, label %28

24:                                               ; preds = %19
  %25 = load ptr, ptr %5, align 8
  %26 = load i32, ptr %10, align 4
  %27 = call ptr @Vec_PtrEntry(ptr noundef %25, i32 noundef %26)
  store ptr %27, ptr %9, align 8
  br label %28

28:                                               ; preds = %24, %19
  %29 = phi i1 [ false, %19 ], [ true, %24 ]
  br i1 %29, label %30, label %130

30:                                               ; preds = %28
  %31 = getelementptr inbounds [2 x i32], ptr %17, i64 0, i64 1
  store i32 0, ptr %31, align 4
  %32 = getelementptr inbounds [2 x i32], ptr %17, i64 0, i64 0
  store i32 0, ptr %32, align 4
  %33 = getelementptr inbounds [2 x i32], ptr %18, i64 0, i64 1
  store i32 0, ptr %33, align 4
  %34 = getelementptr inbounds [2 x i32], ptr %18, i64 0, i64 0
  store i32 0, ptr %34, align 4
  store i32 0, ptr %11, align 4
  br label %35

35:                                               ; preds = %77, %30
  %36 = load i32, ptr %11, align 4
  %37 = load ptr, ptr %9, align 8
  %38 = call i32 @Vec_IntSize(ptr noundef %37)
  %39 = icmp slt i32 %36, %38
  br i1 %39, label %40, label %44

40:                                               ; preds = %35
  %41 = load ptr, ptr %9, align 8
  %42 = load i32, ptr %11, align 4
  %43 = call i32 @Vec_IntEntry(ptr noundef %41, i32 noundef %42)
  store i32 %43, ptr %12, align 4
  br label %44

44:                                               ; preds = %40, %35
  %45 = phi i1 [ false, %35 ], [ true, %40 ]
  br i1 %45, label %46, label %80

46:                                               ; preds = %44
  %47 = load i32, ptr %12, align 4
  %48 = call i32 @Abc_ObjEquivId2NtkId(i32 noundef %47)
  %49 = icmp ne i32 %48, 0
  br i1 %49, label %50, label %63

50:                                               ; preds = %46
  %51 = load i32, ptr %12, align 4
  %52 = call i32 @Abc_ObjEquivId2Polar(i32 noundef %51)
  %53 = icmp ne i32 %52, 0
  br i1 %53, label %54, label %58

54:                                               ; preds = %50
  %55 = getelementptr inbounds [2 x i32], ptr %18, i64 0, i64 1
  %56 = load i32, ptr %55, align 4
  %57 = add nsw i32 %56, 1
  store i32 %57, ptr %55, align 4
  br label %62

58:                                               ; preds = %50
  %59 = getelementptr inbounds [2 x i32], ptr %17, i64 0, i64 1
  %60 = load i32, ptr %59, align 4
  %61 = add nsw i32 %60, 1
  store i32 %61, ptr %59, align 4
  br label %62

62:                                               ; preds = %58, %54
  br label %76

63:                                               ; preds = %46
  %64 = load i32, ptr %12, align 4
  %65 = call i32 @Abc_ObjEquivId2Polar(i32 noundef %64)
  %66 = icmp ne i32 %65, 0
  br i1 %66, label %67, label %71

67:                                               ; preds = %63
  %68 = getelementptr inbounds [2 x i32], ptr %18, i64 0, i64 0
  %69 = load i32, ptr %68, align 4
  %70 = add nsw i32 %69, 1
  store i32 %70, ptr %68, align 4
  br label %75

71:                                               ; preds = %63
  %72 = getelementptr inbounds [2 x i32], ptr %17, i64 0, i64 0
  %73 = load i32, ptr %72, align 4
  %74 = add nsw i32 %73, 1
  store i32 %74, ptr %72, align 4
  br label %75

75:                                               ; preds = %71, %67
  br label %76

76:                                               ; preds = %75, %62
  br label %77

77:                                               ; preds = %76
  %78 = load i32, ptr %11, align 4
  %79 = add nsw i32 %78, 1
  store i32 %79, ptr %11, align 4
  br label %35, !llvm.loop !23

80:                                               ; preds = %44
  %81 = getelementptr inbounds [2 x i32], ptr %17, i64 0, i64 0
  %82 = load i32, ptr %81, align 4
  %83 = getelementptr inbounds [2 x i32], ptr %14, i64 0, i64 0
  %84 = load i32, ptr %83, align 4
  %85 = add nsw i32 %84, %82
  store i32 %85, ptr %83, align 4
  %86 = getelementptr inbounds [2 x i32], ptr %17, i64 0, i64 1
  %87 = load i32, ptr %86, align 4
  %88 = getelementptr inbounds [2 x i32], ptr %14, i64 0, i64 1
  %89 = load i32, ptr %88, align 4
  %90 = add nsw i32 %89, %87
  store i32 %90, ptr %88, align 4
  %91 = getelementptr inbounds [2 x i32], ptr %18, i64 0, i64 0
  %92 = load i32, ptr %91, align 4
  %93 = getelementptr inbounds [2 x i32], ptr %13, i64 0, i64 0
  %94 = load i32, ptr %93, align 4
  %95 = add nsw i32 %94, %92
  store i32 %95, ptr %93, align 4
  %96 = getelementptr inbounds [2 x i32], ptr %18, i64 0, i64 1
  %97 = load i32, ptr %96, align 4
  %98 = getelementptr inbounds [2 x i32], ptr %13, i64 0, i64 1
  %99 = load i32, ptr %98, align 4
  %100 = add nsw i32 %99, %97
  store i32 %100, ptr %98, align 4
  %101 = getelementptr inbounds [2 x i32], ptr %18, i64 0, i64 0
  %102 = load i32, ptr %101, align 4
  %103 = getelementptr inbounds [2 x i32], ptr %17, i64 0, i64 0
  %104 = load i32, ptr %103, align 4
  %105 = add nsw i32 %102, %104
  %106 = getelementptr inbounds [2 x i32], ptr %18, i64 0, i64 1
  %107 = load i32, ptr %106, align 4
  %108 = getelementptr inbounds [2 x i32], ptr %17, i64 0, i64 1
  %109 = load i32, ptr %108, align 4
  %110 = add nsw i32 %107, %109
  %111 = call i32 @Abc_MinInt(i32 noundef %105, i32 noundef %110)
  %112 = load i32, ptr %15, align 4
  %113 = add nsw i32 %112, %111
  store i32 %113, ptr %15, align 4
  %114 = getelementptr inbounds [2 x i32], ptr %18, i64 0, i64 0
  %115 = load i32, ptr %114, align 4
  %116 = getelementptr inbounds [2 x i32], ptr %18, i64 0, i64 1
  %117 = load i32, ptr %116, align 4
  %118 = call i32 @Abc_MinInt(i32 noundef %115, i32 noundef %117)
  %119 = getelementptr inbounds [2 x i32], ptr %17, i64 0, i64 0
  %120 = load i32, ptr %119, align 4
  %121 = getelementptr inbounds [2 x i32], ptr %17, i64 0, i64 1
  %122 = load i32, ptr %121, align 4
  %123 = call i32 @Abc_MinInt(i32 noundef %120, i32 noundef %122)
  %124 = add nsw i32 %118, %123
  %125 = load i32, ptr %16, align 4
  %126 = add nsw i32 %125, %124
  store i32 %126, ptr %16, align 4
  br label %127

127:                                              ; preds = %80
  %128 = load i32, ptr %10, align 4
  %129 = add nsw i32 %128, 1
  store i32 %129, ptr %10, align 4
  br label %19, !llvm.loop !24

130:                                              ; preds = %28
  %131 = load ptr, ptr %5, align 8
  %132 = call i32 @Vec_PtrSize(ptr noundef %131)
  %133 = call i32 (ptr, ...) @printf(ptr noundef @.str.4, i32 noundef %132)
  %134 = getelementptr inbounds [2 x i32], ptr %13, i64 0, i64 0
  %135 = load i32, ptr %134, align 4
  %136 = getelementptr inbounds [2 x i32], ptr %14, i64 0, i64 0
  %137 = load i32, ptr %136, align 4
  %138 = add nsw i32 %135, %137
  %139 = getelementptr inbounds [2 x i32], ptr %13, i64 0, i64 1
  %140 = load i32, ptr %139, align 4
  %141 = add nsw i32 %138, %140
  %142 = getelementptr inbounds [2 x i32], ptr %14, i64 0, i64 1
  %143 = load i32, ptr %142, align 4
  %144 = add nsw i32 %141, %143
  %145 = call i32 (ptr, ...) @printf(ptr noundef @.str.5, i32 noundef %144)
  %146 = getelementptr inbounds [2 x i32], ptr %13, i64 0, i64 0
  %147 = load i32, ptr %146, align 4
  %148 = getelementptr inbounds [2 x i32], ptr %14, i64 0, i64 0
  %149 = load i32, ptr %148, align 4
  %150 = add nsw i32 %147, %149
  %151 = getelementptr inbounds [2 x i32], ptr %13, i64 0, i64 0
  %152 = load i32, ptr %151, align 4
  %153 = getelementptr inbounds [2 x i32], ptr %14, i64 0, i64 0
  %154 = load i32, ptr %153, align 4
  %155 = add nsw i32 %152, %154
  %156 = sitofp i32 %155 to double
  %157 = fmul double 1.000000e+02, %156
  %158 = load i32, ptr %6, align 4
  %159 = add nsw i32 %158, 1
  %160 = sitofp i32 %159 to double
  %161 = fdiv double %157, %160
  %162 = call i32 (ptr, ...) @printf(ptr noundef @.str.6, i32 noundef %150, double noundef %161)
  %163 = getelementptr inbounds [2 x i32], ptr %13, i64 0, i64 1
  %164 = load i32, ptr %163, align 4
  %165 = getelementptr inbounds [2 x i32], ptr %14, i64 0, i64 1
  %166 = load i32, ptr %165, align 4
  %167 = add nsw i32 %164, %166
  %168 = getelementptr inbounds [2 x i32], ptr %13, i64 0, i64 1
  %169 = load i32, ptr %168, align 4
  %170 = getelementptr inbounds [2 x i32], ptr %14, i64 0, i64 1
  %171 = load i32, ptr %170, align 4
  %172 = add nsw i32 %169, %171
  %173 = sitofp i32 %172 to double
  %174 = fmul double 1.000000e+02, %173
  %175 = load i32, ptr %7, align 4
  %176 = add nsw i32 %175, 1
  %177 = sitofp i32 %176 to double
  %178 = fdiv double %174, %177
  %179 = call i32 (ptr, ...) @printf(ptr noundef @.str.7, i32 noundef %167, double noundef %178)
  %180 = load i32, ptr %15, align 4
  %181 = load i32, ptr %15, align 4
  %182 = sitofp i32 %181 to double
  %183 = fmul double 1.000000e+02, %182
  %184 = load i32, ptr %6, align 4
  %185 = add nsw i32 %184, 1
  %186 = sitofp i32 %185 to double
  %187 = fdiv double %183, %186
  %188 = call i32 (ptr, ...) @printf(ptr noundef @.str.8, i32 noundef %180, double noundef %187)
  %189 = load i32, ptr %16, align 4
  %190 = load i32, ptr %16, align 4
  %191 = sitofp i32 %190 to double
  %192 = fmul double 1.000000e+02, %191
  %193 = load i32, ptr %6, align 4
  %194 = add nsw i32 %193, 1
  %195 = sitofp i32 %194 to double
  %196 = fdiv double %192, %195
  %197 = call i32 (ptr, ...) @printf(ptr noundef @.str.9, i32 noundef %189, double noundef %196)
  call void (i32, ptr, ...) @Abc_Print(i32 noundef 1, ptr noundef @.str.10, ptr noundef @.str.11)
  %198 = load i64, ptr %8, align 8
  %199 = sitofp i64 %198 to double
  %200 = fmul double 1.000000e+00, %199
  %201 = fdiv double %200, 1.000000e+06
  call void (i32, ptr, ...) @Abc_Print(i32 noundef 1, ptr noundef @.str.12, double noundef %201)
  ret void
}