; Function Attrs: nounwind uwtable
define void @Abc_NtkDressPrintStats(ptr noundef readonly captures(none) %0, i32 noundef %1, i32 noundef %2, i64 noundef %3) local_unnamed_addr #1 {
  %5 = getelementptr i8, ptr %0, i64 4
  %.val67 = load i32, ptr %5, align 4
  %6 = icmp sgt i32 %.val67, 0
  br i1 %6, label %.lr.ph86, label %.critedge

.lr.ph86:                                         ; preds = %4
  %7 = getelementptr i8, ptr %0, i64 8
  %.val68 = load ptr, ptr %7, align 8
  %wide.trip.count103 = zext nneg i32 %.val67 to i64
  br label %8

8:                                                ; preds = %.lr.ph86, %.critedge2
  %indvars.iv100 = phi i64 [ 0, %.lr.ph86 ], [ %indvars.iv.next101, %.critedge2 ]
  %.085 = phi i32 [ 0, %.lr.ph86 ], [ %41, %.critedge2 ]
  %.06284 = phi i32 [ 0, %.lr.ph86 ], [ %37, %.critedge2 ]
  %.sroa.626.083 = phi i32 [ 0, %.lr.ph86 ], [ %31, %.critedge2 ]
  %.sroa.022.082 = phi i32 [ 0, %.lr.ph86 ], [ %30, %.critedge2 ]
  %.sroa.637.081 = phi i32 [ 0, %.lr.ph86 ], [ %33, %.critedge2 ]
  %.sroa.033.080 = phi i32 [ 0, %.lr.ph86 ], [ %32, %.critedge2 ]
  %9 = getelementptr inbounds nuw ptr, ptr %.val68, i64 %indvars.iv100
  %10 = load ptr, ptr %9, align 8
  %11 = getelementptr i8, ptr %10, i64 4
  %.val70 = load i32, ptr %11, align 4
  %12 = icmp sgt i32 %.val70, 0
  br i1 %12, label %.lr.ph, label %.critedge2

.lr.ph:                                           ; preds = %8
  %13 = getelementptr i8, ptr %10, i64 8
  %.val69 = load ptr, ptr %13, align 8
  %wide.trip.count = zext nneg i32 %.val70 to i64
  br label %14

14:                                               ; preds = %.lr.ph, %29
  %indvars.iv = phi i64 [ 0, %.lr.ph ], [ %indvars.iv.next, %29 ]
  %.sroa.0.075 = phi i32 [ 0, %.lr.ph ], [ %.sroa.0.1, %29 ]
  %.sroa.6.074 = phi i32 [ 0, %.lr.ph ], [ %.sroa.6.1, %29 ]
  %.sroa.09.073 = phi i32 [ 0, %.lr.ph ], [ %.sroa.09.1, %29 ]
  %.sroa.613.072 = phi i32 [ 0, %.lr.ph ], [ %.sroa.613.1, %29 ]
  %15 = getelementptr inbounds nuw i32, ptr %.val69, i64 %indvars.iv
  %16 = load i32, ptr %15, align 4
  %17 = and i32 %16, 1
  %.not = icmp eq i32 %17, 0
  %18 = and i32 %16, 2
  %.not65 = icmp eq i32 %18, 0
  br i1 %.not, label %24, label %19

19:                                               ; preds = %14
  br i1 %.not65, label %22, label %20

20:                                               ; preds = %19
  %21 = add nsw i32 %.sroa.6.074, 1
  br label %29

22:                                               ; preds = %19
  %23 = add nsw i32 %.sroa.613.072, 1
  br label %29

24:                                               ; preds = %14
  br i1 %.not65, label %27, label %25

25:                                               ; preds = %24
  %26 = add nsw i32 %.sroa.0.075, 1
  br label %29

27:                                               ; preds = %24
  %28 = add nsw i32 %.sroa.09.073, 1
  br label %29

29:                                               ; preds = %22, %20, %27, %25
  %.sroa.613.1 = phi i32 [ %.sroa.613.072, %20 ], [ %23, %22 ], [ %.sroa.613.072, %25 ], [ %.sroa.613.072, %27 ]
  %.sroa.09.1 = phi i32 [ %.sroa.09.073, %20 ], [ %.sroa.09.073, %22 ], [ %.sroa.09.073, %25 ], [ %28, %27 ]
  %.sroa.6.1 = phi i32 [ %21, %20 ], [ %.sroa.6.074, %22 ], [ %.sroa.6.074, %25 ], [ %.sroa.6.074, %27 ]
  %.sroa.0.1 = phi i32 [ %.sroa.0.075, %20 ], [ %.sroa.0.075, %22 ], [ %26, %25 ], [ %.sroa.0.075, %27 ]
  %indvars.iv.next = add nuw nsw i64 %indvars.iv, 1
  %exitcond.not = icmp eq i64 %indvars.iv.next, %wide.trip.count
  br i1 %exitcond.not, label %.critedge2, label %14, !llvm.loop !22

.critedge2:                                       ; preds = %29, %8
  %.sroa.613.0.lcssa = phi i32 [ 0, %8 ], [ %.sroa.613.1, %29 ]
  %.sroa.09.0.lcssa = phi i32 [ 0, %8 ], [ %.sroa.09.1, %29 ]
  %.sroa.6.0.lcssa = phi i32 [ 0, %8 ], [ %.sroa.6.1, %29 ]
  %.sroa.0.0.lcssa = phi i32 [ 0, %8 ], [ %.sroa.0.1, %29 ]
  %30 = add nsw i32 %.sroa.09.0.lcssa, %.sroa.022.082
  %31 = add nsw i32 %.sroa.613.0.lcssa, %.sroa.626.083
  %32 = add nsw i32 %.sroa.0.0.lcssa, %.sroa.033.080
  %33 = add nsw i32 %.sroa.6.0.lcssa, %.sroa.637.081
  %34 = add nsw i32 %.sroa.0.0.lcssa, %.sroa.09.0.lcssa
  %35 = add nsw i32 %.sroa.6.0.lcssa, %.sroa.613.0.lcssa
  %36 = tail call noundef i32 @llvm.smin.i32(i32 %34, i32 %35)
  %37 = add nsw i32 %36, %.06284
  %38 = tail call noundef i32 @llvm.smin.i32(i32 %.sroa.0.0.lcssa, i32 %.sroa.6.0.lcssa)
  %39 = tail call noundef i32 @llvm.smin.i32(i32 %.sroa.09.0.lcssa, i32 %.sroa.613.0.lcssa)
  %40 = add i32 %39, %.085
  %41 = add i32 %40, %38
  %indvars.iv.next101 = add nuw nsw i64 %indvars.iv100, 1
  %exitcond104.not = icmp eq i64 %indvars.iv.next101, %wide.trip.count103
  br i1 %exitcond104.not, label %.critedge, label %8, !llvm.loop !23

.critedge:                                        ; preds = %.critedge2, %4
  %.sroa.033.0.lcssa = phi i32 [ 0, %4 ], [ %32, %.critedge2 ]
  %.sroa.637.0.lcssa = phi i32 [ 0, %4 ], [ %33, %.critedge2 ]
  %.sroa.022.0.lcssa = phi i32 [ 0, %4 ], [ %30, %.critedge2 ]
  %.sroa.626.0.lcssa = phi i32 [ 0, %4 ], [ %31, %.critedge2 ]
  %.062.lcssa = phi i32 [ 0, %4 ], [ %37, %.critedge2 ]
  %.0.lcssa = phi i32 [ 0, %4 ], [ %41, %.critedge2 ]
  %42 = tail call i32 (ptr, ...) @printf(ptr noundef nonnull dereferenceable(1) @.str.4, i32 noundef %.val67)
  %43 = add nsw i32 %.sroa.022.0.lcssa, %.sroa.033.0.lcssa
  %44 = add nsw i32 %43, %.sroa.637.0.lcssa
  %45 = add nsw i32 %44, %.sroa.626.0.lcssa
  %46 = tail call i32 (ptr, ...) @printf(ptr noundef nonnull dereferenceable(1) @.str.5, i32 noundef %45)
  %47 = sitofp i32 %43 to double
  %48 = fmul double %47, 1.000000e+02
  %49 = add nsw i32 %1, 1
  %50 = sitofp i32 %49 to double
  %51 = fdiv double %48, %50
  %52 = tail call i32 (ptr, ...) @printf(ptr noundef nonnull dereferenceable(1) @.str.6, i32 noundef %43, double noundef %51)
  %53 = add nsw i32 %.sroa.626.0.lcssa, %.sroa.637.0.lcssa
  %54 = sitofp i32 %53 to double
  %55 = fmul double %54, 1.000000e+02
  %56 = add nsw i32 %2, 1
  %57 = sitofp i32 %56 to double
  %58 = fdiv double %55, %57
  %59 = tail call i32 (ptr, ...) @printf(ptr noundef nonnull dereferenceable(1) @.str.7, i32 noundef %53, double noundef %58)
  %60 = sitofp i32 %.062.lcssa to double
  %61 = fmul double %60, 1.000000e+02
  %62 = fdiv double %61, %50
  %63 = tail call i32 (ptr, ...) @printf(ptr noundef nonnull dereferenceable(1) @.str.8, i32 noundef %.062.lcssa, double noundef %62)
  %64 = sitofp i32 %.0.lcssa to double
  %65 = fmul double %64, 1.000000e+02
  %66 = fdiv double %65, %50
  %67 = tail call i32 (ptr, ...) @printf(ptr noundef nonnull dereferenceable(1) @.str.9, i32 noundef %.0.lcssa, double noundef %66)
  tail call void (i32, ptr, ...) @Abc_Print(i32 poison, ptr noundef nonnull @.str.10, ptr noundef nonnull @.str.11)
  %68 = sitofp i64 %3 to double
  %69 = fdiv double %68, 1.000000e+06
  tail call void (i32, ptr, ...) @Abc_Print(i32 poison, ptr noundef nonnull @.str.12, double noundef %69)
  ret void
}